; Function Attrs: mustprogress nofree norecurse nosync nounwind willreturn memory(argmem: read) uwtable
define hidden noundef i32 @_ZN7nanogui7TextBox9spin_areaERKNS_5ArrayIiLm2EEE(ptr nocapture noundef nonnull readonly align 8 dereferenceable(440) %0, ptr nocapture noundef nonnull readonly align 4 dereferenceable(8) %1) local_unnamed_addr #8 align 2 {
  %3 = load i32, ptr %1, align 4
  %4 = getelementptr inbounds i8, ptr %0, i64 40
  %5 = load i32, ptr %4, align 8
  %.not = icmp sge i32 %3, %5
  %6 = sub nsw i32 %3, %5
  %7 = icmp slt i32 %6, 14
  %or.cond = select i1 %.not, i1 %7, i1 false
  br i1 %or.cond, label %8, label %27

8:                                                ; preds = %2
  %9 = getelementptr inbounds i8, ptr %0, i64 52
  %10 = load i32, ptr %9, align 4
  %11 = getelementptr inbounds i8, ptr %1, i64 4
  %12 = load i32, ptr %11, align 4
  %13 = getelementptr inbounds i8, ptr %0, i64 44
  %14 = load i32, ptr %13, align 4
  %15 = sub nsw i32 %12, %14
  %.not7 = icmp slt i32 %10, %15
  br i1 %.not7, label %21, label %16

16:                                               ; preds = %8
  %17 = sitofp i32 %15 to float
  %18 = sitofp i32 %10 to float
  %19 = fmul float %18, 5.000000e-01
  %20 = fcmp ult float %19, %17
  br i1 %20, label %21, label %28

21:                                               ; preds = %16, %8
  %.not8 = icmp slt i32 %12, %14
  br i1 %.not8, label %27, label %22

22:                                               ; preds = %21
  %23 = sitofp i32 %15 to float
  %24 = sitofp i32 %10 to float
  %25 = fmul float %24, 5.000000e-01
  %26 = fcmp olt float %25, %23
  br i1 %26, label %28, label %27

27:                                               ; preds = %22, %21, %2
  br label %28

28:                                               ; preds = %22, %16, %27
  %.0 = phi i32 [ 0, %27 ], [ 1, %16 ], [ 2, %22 ]
  ret i32 %.0
}